target datalayout = "e-m:e-p270:32:32-p271:32:32-p272:64:64-i64:64-i128:128-f80:128-n8:16:32:64-S128"
target triple = "x86_64-pc-linux-gnu"

%struct.AVCodecContext = type { ptr, i32, i32, ptr, i32, i32, ptr, ptr, ptr, i64, i32, i32, ptr, i32, %struct.AVRational, %struct.AVRational, %struct.AVRational, i32, i32, i32, i32, i32, %struct.AVRational, i32, i32, i32, i32, i32, i32, i32, i32, i32, i32, i32, ptr, ptr, i32, float, float, float, float, float, float, float, float, float, i32, i32, i32, i32, i32, i32, i32, i32, i32, i32, i32, i32, ptr, ptr, ptr, i32, i32, i32, i32, i32, i32, i32, i32, i32, i32, %struct.AVChannelLayout, i32, i32, i32, i32, i32, i32, i32, i32, ptr, i32, i32, i32, float, float, i32, i32, i32, i32, i32, ptr, i64, i64, float, float, i32, i32, ptr, ptr, i32, i32, i32, i32, i32, ptr, ptr, ptr, ptr, i32, i32, [8 x i64], i32, i32, i32, i32, i32, i32, i32, ptr, ptr, i32, i32, i32, i32, i32, i32, i32, i32, i32, i32, ptr, ptr, i32, i32, ptr, ptr, ptr, ptr, i32, i32, i64, i32, i32, i64, ptr, i64, ptr, i32, ptr, i32 }
%struct.AVRational = type { i32, i32 }
%struct.AVChannelLayout = type { i32, i32, %union.anon.1, ptr }
%union.anon.1 = type { i64 }
%struct.Jpeg2000DecoderContext = type { ptr, ptr, %struct.GetByteContext, i32, i32, i32, i32, i32, i32, [4 x i8], [4 x i8], [4 x i8], i8, ptr, i32, %struct.GetByteContext, [4 x i32], [4 x i32], i32, i32, i32, [256 x i32], i8, [4 x i32], i32, i32, i32, i32, i32, %struct.AVRational, [4 x %struct.Jpeg2000CodingStyle], [4 x %struct.Jpeg2000QuantStyle], %struct.Jpeg2000POC, [4 x i8], i32, i32, ptr, %struct.Jpeg2000DSPContext, i8, i8, i8, i8, i8, i8, i32 }
%struct.GetByteContext = type { ptr, ptr, ptr }
%struct.Jpeg2000CodingStyle = type { i32, i32, i8, i8, i8, i8, i8, i8, i8, i8, [34 x i8], [34 x i8], i8 }
%struct.Jpeg2000QuantStyle = type { [99 x i8], [99 x i16], i8, i8 }
%struct.Jpeg2000POC = type { [32 x %struct.Jpeg2000POCEntry], i32, i32 }
%struct.Jpeg2000POCEntry = type { i16, i16, i16, i8, i8, i8 }
%struct.Jpeg2000DSPContext = type { [3 x ptr] }

@.str.6 = private unnamed_addr constant [56 x i8] c"lowres is overriden by reduction_factor but set anyway\0A\00", align 1

; Function Attrs: cold nounwind optsize uwtable
define internal i32 @jpeg2000_decode_init(ptr noundef %0) #0 {
  %2 = alloca i32, align 4
  %3 = alloca ptr, align 8
  %4 = alloca ptr, align 8
  %5 = alloca i32, align 4
  store ptr %0, ptr %3, align 8, !tbaa !4
  call void @llvm.lifetime.start.p0(i64 8, ptr %4) #12
  %6 = load ptr, ptr %3, align 8, !tbaa !4
  %7 = getelementptr inbounds nuw %struct.AVCodecContext, ptr %6, i32 0, i32 6
  %8 = load ptr, ptr %7, align 8, !tbaa !9
  store ptr %8, ptr %4, align 8, !tbaa !29
  %9 = load ptr, ptr %3, align 8, !tbaa !4
  %10 = getelementptr inbounds nuw %struct.AVCodecContext, ptr %9, i32 0, i32 130
  %11 = load i32, ptr %10, align 4, !tbaa !31
  %12 = icmp ne i32 %11, 0
  br i1 %12, label %13, label %15

13:                                               ; preds = %1
  %14 = load ptr, ptr %3, align 8, !tbaa !4
  call void (ptr, i32, ptr, ...) @av_log(ptr noundef %14, i32 noundef 24, ptr noundef @.str.6)
  br label %15

15:                                               ; preds = %13, %1
  %16 = load ptr, ptr %4, align 8, !tbaa !29
  %17 = getelementptr inbounds nuw %struct.Jpeg2000DecoderContext, ptr %16, i32 0, i32 44
  %18 = load i32, ptr %17, align 8, !tbaa !32
  %19 = icmp ne i32 %18, 0
  br i1 %19, label %31, label %20

20:                                               ; preds = %15
  %21 = load ptr, ptr %3, align 8, !tbaa !4
  %22 = getelementptr inbounds nuw %struct.AVCodecContext, ptr %21, i32 0, i32 130
  %23 = load i32, ptr %22, align 4, !tbaa !31
  %24 = icmp slt i32 %23, 34
  br i1 %24, label %25, label %31

25:                                               ; preds = %20
  %26 = load ptr, ptr %3, align 8, !tbaa !4
  %27 = getelementptr inbounds nuw %struct.AVCodecContext, ptr %26, i32 0, i32 130
  %28 = load i32, ptr %27, align 4, !tbaa !31
  %29 = load ptr, ptr %4, align 8, !tbaa !29
  %30 = getelementptr inbounds nuw %struct.Jpeg2000DecoderContext, ptr %29, i32 0, i32 44
  store i32 %28, ptr %30, align 8, !tbaa !32
  br label %31

31:                                               ; preds = %25, %20, %15
  %32 = load ptr, ptr %3, align 8, !tbaa !4
  %33 = getelementptr inbounds nuw %struct.AVCodecContext, ptr %32, i32 0, i32 130
  %34 = load i32, ptr %33, align 4, !tbaa !31
  %35 = load ptr, ptr %4, align 8, !tbaa !29
  %36 = getelementptr inbounds nuw %struct.Jpeg2000DecoderContext, ptr %35, i32 0, i32 44
  %37 = load i32, ptr %36, align 8, !tbaa !32
  %38 = icmp ne i32 %34, %37
  br i1 %38, label %39, label %45

39:                                               ; preds = %31
  %40 = load ptr, ptr %3, align 8, !tbaa !4
  %41 = getelementptr inbounds nuw %struct.AVCodecContext, ptr %40, i32 0, i32 130
  %42 = load i32, ptr %41, align 4, !tbaa !31
  %43 = icmp ne i32 %42, 0
  br i1 %43, label %44, label %45

44:                                               ; preds = %39
  store i32 -22, ptr %2, align 4
  store i32 1, ptr %5, align 4
  br label %48

45:                                               ; preds = %39, %31
  %46 = load ptr, ptr %4, align 8, !tbaa !29
  %47 = getelementptr inbounds nuw %struct.Jpeg2000DecoderContext, ptr %46, i32 0, i32 37
  call void @ff_jpeg2000dsp_init(ptr noundef %47)
  call void @ff_jpeg2000_init_tier1_luts()
  store i32 0, ptr %2, align 4
  store i32 1, ptr %5, align 4
  br label %48

48:                                               ; preds = %45, %44
  call void @llvm.lifetime.end.p0(i64 8, ptr %4) #12
  %49 = load i32, ptr %2, align 4
  ret i32 %49
}