; Function Attrs: cold nounwind optsize uwtable
define internal range(i32 -22, 1) i32 @jpeg2000_decode_init(ptr noundef %0) #0 {
  %2 = getelementptr inbounds nuw i8, ptr %0, i64 32
  %3 = load ptr, ptr %2, align 8, !tbaa !4
  %4 = getelementptr inbounds nuw i8, ptr %0, i64 724
  %5 = load i32, ptr %4, align 4, !tbaa !27
  %.not = icmp eq i32 %5, 0
  br i1 %.not, label %.thread, label %6

6:                                                ; preds = %1
  tail call void (ptr, i32, ptr, ...) @av_log(ptr noundef nonnull %0, i32 noundef 24, ptr noundef nonnull @.str.6) #11
  %.pre.pre = load i32, ptr %4, align 4, !tbaa !27
  %7 = getelementptr inbounds nuw i8, ptr %3, i64 3168
  %8 = load i32, ptr %7, align 8, !tbaa !28
  %.not13 = icmp eq i32 %8, 0
  %9 = icmp slt i32 %.pre.pre, 34
  %or.cond29 = select i1 %.not13, i1 %9, i1 false
  br i1 %or.cond29, label %.thread21, label %13

.thread:                                          ; preds = %1
  %10 = getelementptr inbounds nuw i8, ptr %3, i64 3168
  %11 = load i32, ptr %10, align 8, !tbaa !28
  %.not1318 = icmp eq i32 %11, 0
  br i1 %.not1318, label %.thread21, label %.thread24

.thread21:                                        ; preds = %6, %.thread
  %.pre2023 = phi i32 [ 0, %.thread ], [ %.pre.pre, %6 ]
  %12 = phi ptr [ %10, %.thread ], [ %7, %6 ]
  store i32 %.pre2023, ptr %12, align 8, !tbaa !28
  br label %.thread24

13:                                               ; preds = %6
  %.not14 = icmp eq i32 %.pre.pre, %8
  %.not15 = icmp eq i32 %.pre.pre, 0
  %or.cond = or i1 %.not15, %.not14
  br i1 %or.cond, label %.thread24, label %15

.thread24:                                        ; preds = %.thread21, %.thread, %13
  %14 = getelementptr inbounds nuw i8, ptr %3, i64 3136
  tail call void @ff_jpeg2000dsp_init(ptr noundef nonnull %14) #11
  tail call void @ff_jpeg2000_init_tier1_luts() #11
  br label %15

15:                                               ; preds = %13, %.thread24
  %.0 = phi i32 [ 0, %.thread24 ], [ -22, %13 ]
  ret i32 %.0
}